target datalayout = "e-m:e-p270:32:32-p271:32:32-p272:64:64-i64:64-i128:128-f80:128-n8:16:32:64-S128"
target triple = "x86_64-pc-linux-gnu"

%struct._lv_matrix_t = type { [3 x [3 x float]] }
%struct._lv_vector_path_t = type { i32, %struct._lv_array_t, %struct._lv_array_t }
%struct._lv_array_t = type { ptr, i32, i32, i32, i8 }
%struct.lv_area_t = type { i32, i32, i32, i32 }
%struct.lv_color32_t = type { i8, i8, i8, i8 }
%struct.lv_color_t = type { i8, i8, i8 }
%struct._lv_vector_draw_dsc_t = type { %struct._lv_vector_fill_dsc_t, %struct._lv_vector_stroke_dsc_t, %struct._lv_matrix_t, i32, %struct.lv_area_t }
%struct._lv_vector_fill_dsc_t = type { i32, %struct.lv_color32_t, i8, i32, %struct._lv_draw_image_dsc_t, %struct._lv_vector_gradient_t, %struct._lv_matrix_t }
%struct._lv_draw_image_dsc_t = type { %struct.lv_draw_dsc_base_t, ptr, %struct.lv_image_header_t, i32, i32, i32, i32, i32, %struct.lv_point_t, %struct.lv_color_t, i8, i8, i8, ptr, %struct.lv_area_t, i32, ptr }
%struct.lv_draw_dsc_base_t = type { ptr, i32, i32, i32, ptr, i64, ptr }
%struct.lv_image_header_t = type <{ i64, i32 }>
%struct.lv_point_t = type { i32, i32 }
%struct._lv_vector_gradient_t = type { i32, [2 x %struct.lv_gradient_stop_t], i16, float, float, float, float, float, float, float, i32 }
%struct.lv_gradient_stop_t = type { %struct.lv_color_t, i8, i8 }
%struct._lv_vector_stroke_dsc_t = type { i32, %struct.lv_color32_t, i8, float, %struct._lv_array_t, i32, i32, i16, %struct._lv_vector_gradient_t, %struct._lv_matrix_t }
%struct.lv_vector_draw_task = type { ptr, %struct._lv_vector_draw_dsc_t }

; Function Attrs: nounwind uwtable
define void @lv_vector_path_delete(ptr noundef %0) #0 {
  %2 = alloca ptr, align 8
  store ptr %0, ptr %2, align 8, !tbaa !3
  %3 = load ptr, ptr %2, align 8, !tbaa !3
  %4 = getelementptr inbounds nuw %struct._lv_vector_path_t, ptr %3, i32 0, i32 1
  call void @lv_array_deinit(ptr noundef %4)
  %5 = load ptr, ptr %2, align 8, !tbaa !3
  %6 = getelementptr inbounds nuw %struct._lv_vector_path_t, ptr %5, i32 0, i32 2
  call void @lv_array_deinit(ptr noundef %6)
  %7 = load ptr, ptr %2, align 8, !tbaa !3
  call void @lv_free(ptr noundef %7)
  ret void
}

; Function Attrs: nounwind uwtable
define void @lv_vector_for_each_destroy_tasks(ptr noundef %0, ptr noundef %1, ptr noundef %2) #0 {
  %4 = alloca ptr, align 8
  %5 = alloca ptr, align 8
  %6 = alloca ptr, align 8
  %7 = alloca ptr, align 8
  %8 = alloca ptr, align 8
  store ptr %0, ptr %4, align 8, !tbaa !3
  store ptr %1, ptr %5, align 8, !tbaa !3
  store ptr %2, ptr %6, align 8, !tbaa !3
  call void @llvm.lifetime.start.p0(i64 8, ptr %7) #7
  %9 = load ptr, ptr %4, align 8, !tbaa !3
  %10 = call ptr @lv_ll_get_head(ptr noundef %9)
  store ptr %10, ptr %7, align 8, !tbaa !3
  call void @llvm.lifetime.start.p0(i64 8, ptr %8) #7
  store ptr null, ptr %8, align 8, !tbaa !3
  br label %11

11:                                               ; preds = %39, %3
  %12 = load ptr, ptr %7, align 8, !tbaa !3
  %13 = icmp ne ptr %12, null
  br i1 %13, label %14, label %46

14:                                               ; preds = %11
  %15 = load ptr, ptr %4, align 8, !tbaa !3
  %16 = load ptr, ptr %7, align 8, !tbaa !3
  %17 = call ptr @lv_ll_get_next(ptr noundef %15, ptr noundef %16)
  store ptr %17, ptr %8, align 8, !tbaa !3
  %18 = load ptr, ptr %4, align 8, !tbaa !3
  %19 = load ptr, ptr %7, align 8, !tbaa !3
  call void @lv_ll_remove(ptr noundef %18, ptr noundef %19)
  %20 = load ptr, ptr %5, align 8, !tbaa !3
  %21 = icmp ne ptr %20, null
  br i1 %21, label %22, label %30

22:                                               ; preds = %14
  %23 = load ptr, ptr %5, align 8, !tbaa !3
  %24 = load ptr, ptr %6, align 8, !tbaa !3
  %25 = load ptr, ptr %7, align 8, !tbaa !3
  %26 = getelementptr inbounds nuw %struct.lv_vector_draw_task, ptr %25, i32 0, i32 0
  %27 = load ptr, ptr %26, align 8, !tbaa !65
  %28 = load ptr, ptr %7, align 8, !tbaa !3
  %29 = getelementptr inbounds nuw %struct.lv_vector_draw_task, ptr %28, i32 0, i32 1
  call void %23(ptr noundef %24, ptr noundef %27, ptr noundef %29)
  br label %30

30:                                               ; preds = %22, %14
  %31 = load ptr, ptr %7, align 8, !tbaa !3
  %32 = getelementptr inbounds nuw %struct.lv_vector_draw_task, ptr %31, i32 0, i32 0
  %33 = load ptr, ptr %32, align 8, !tbaa !65
  %34 = icmp ne ptr %33, null
  br i1 %34, label %35, label %39

35:                                               ; preds = %30
  %36 = load ptr, ptr %7, align 8, !tbaa !3
  %37 = getelementptr inbounds nuw %struct.lv_vector_draw_task, ptr %36, i32 0, i32 0
  %38 = load ptr, ptr %37, align 8, !tbaa !65
  call void @lv_vector_path_delete(ptr noundef %38)
  br label %39

39:                                               ; preds = %35, %30
  %40 = load ptr, ptr %7, align 8, !tbaa !3
  %41 = getelementptr inbounds nuw %struct.lv_vector_draw_task, ptr %40, i32 0, i32 1
  %42 = getelementptr inbounds nuw %struct._lv_vector_draw_dsc_t, ptr %41, i32 0, i32 1
  %43 = getelementptr inbounds nuw %struct._lv_vector_stroke_dsc_t, ptr %42, i32 0, i32 4
  call void @lv_array_deinit(ptr noundef %43)
  %44 = load ptr, ptr %7, align 8, !tbaa !3
  call void @lv_free(ptr noundef %44)
  %45 = load ptr, ptr %8, align 8, !tbaa !3
  store ptr %45, ptr %7, align 8, !tbaa !3
  br label %11, !llvm.loop !67

46:                                               ; preds = %11
  %47 = load ptr, ptr %4, align 8, !tbaa !3
  call void @lv_free(ptr noundef %47)
  call void @llvm.lifetime.end.p0(i64 8, ptr %8) #7
  call void @llvm.lifetime.end.p0(i64 8, ptr %7) #7
  ret void
}