; Function Attrs: nounwind uwtable
define void @lv_vector_for_each_destroy_tasks(ptr noundef %0, ptr noundef readonly %1, ptr noundef %2) local_unnamed_addr #3 {
  %4 = tail call ptr @lv_ll_get_head(ptr noundef %0) #9
  %.not21 = icmp eq ptr %4, null
  br i1 %.not21, label %._crit_edge, label %.lr.ph

.lr.ph:                                           ; preds = %3
  %.not19 = icmp eq ptr %1, null
  br i1 %.not19, label %.lr.ph.split.us, label %.lr.ph.split

.lr.ph.split.us:                                  ; preds = %.lr.ph, %10
  %.022.us = phi ptr [ %5, %10 ], [ %4, %.lr.ph ]
  %5 = tail call ptr @lv_ll_get_next(ptr noundef %0, ptr noundef nonnull %.022.us) #9
  tail call void @lv_ll_remove(ptr noundef %0, ptr noundef nonnull %.022.us) #9
  %6 = load ptr, ptr %.022.us, align 8, !tbaa !58
  %.not20.us = icmp eq ptr %6, null
  br i1 %.not20.us, label %10, label %7

7:                                                ; preds = %.lr.ph.split.us
  %8 = getelementptr inbounds nuw i8, ptr %6, i64 8
  tail call void @lv_array_deinit(ptr noundef nonnull %8) #9
  %9 = getelementptr inbounds nuw i8, ptr %6, i64 32
  tail call void @lv_array_deinit(ptr noundef nonnull %9) #9
  tail call void @lv_free(ptr noundef nonnull %6) #9
  br label %10

10:                                               ; preds = %7, %.lr.ph.split.us
  %11 = getelementptr inbounds nuw i8, ptr %.022.us, i64 272
  tail call void @lv_array_deinit(ptr noundef nonnull %11) #9
  tail call void @lv_free(ptr noundef nonnull %.022.us) #9
  %.not.us = icmp eq ptr %5, null
  br i1 %.not.us, label %._crit_edge, label %.lr.ph.split.us, !llvm.loop !60

.lr.ph.split:                                     ; preds = %.lr.ph, %19
  %.022 = phi ptr [ %12, %19 ], [ %4, %.lr.ph ]
  %12 = tail call ptr @lv_ll_get_next(ptr noundef %0, ptr noundef nonnull %.022) #9
  tail call void @lv_ll_remove(ptr noundef %0, ptr noundef nonnull %.022) #9
  %13 = load ptr, ptr %.022, align 8, !tbaa !58
  %14 = getelementptr inbounds nuw i8, ptr %.022, i64 8
  tail call void %1(ptr noundef %2, ptr noundef %13, ptr noundef nonnull %14) #9
  %15 = load ptr, ptr %.022, align 8, !tbaa !58
  %.not20 = icmp eq ptr %15, null
  br i1 %.not20, label %19, label %16

16:                                               ; preds = %.lr.ph.split
  %17 = getelementptr inbounds nuw i8, ptr %15, i64 8
  tail call void @lv_array_deinit(ptr noundef nonnull %17) #9
  %18 = getelementptr inbounds nuw i8, ptr %15, i64 32
  tail call void @lv_array_deinit(ptr noundef nonnull %18) #9
  tail call void @lv_free(ptr noundef nonnull %15) #9
  br label %19

19:                                               ; preds = %16, %.lr.ph.split
  %20 = getelementptr inbounds nuw i8, ptr %.022, i64 272
  tail call void @lv_array_deinit(ptr noundef nonnull %20) #9
  tail call void @lv_free(ptr noundef nonnull %.022) #9
  %.not = icmp eq ptr %12, null
  br i1 %.not, label %._crit_edge, label %.lr.ph.split, !llvm.loop !60

._crit_edge:                                      ; preds = %19, %10, %3
  tail call void @lv_free(ptr noundef %0) #9
  ret void
}